; Function Attrs: nounwind uwtable
define dso_local noundef ptr @jinit_read_ppm(ptr noundef %0) local_unnamed_addr #0 {
  %2 = getelementptr inbounds nuw i8, ptr %0, i64 72
  %3 = load i32, ptr %2, align 8, !tbaa !4
  %4 = add i32 %3, -9
  %or.cond = icmp ult i32 %4, -7
  br i1 %or.cond, label %5, label %11

5:                                                ; preds = %1
  %6 = load ptr, ptr %0, align 8, !tbaa !25
  %7 = getelementptr inbounds nuw i8, ptr %6, i64 40
  store i32 15, ptr %7, align 8, !tbaa !26
  %8 = getelementptr inbounds nuw i8, ptr %6, i64 44
  store i32 %3, ptr %8, align 4, !tbaa !30
  %9 = load ptr, ptr %0, align 8, !tbaa !25
  %10 = load ptr, ptr %9, align 8, !tbaa !31
  tail call void %10(ptr noundef nonnull %0) #6
  br label %11

11:                                               ; preds = %1, %5
  %12 = getelementptr inbounds nuw i8, ptr %0, i64 8
  %13 = load ptr, ptr %12, align 8, !tbaa !32
  %14 = load ptr, ptr %13, align 8, !tbaa !33
  %15 = tail call ptr %14(ptr noundef nonnull %0, i32 noundef 1, i64 noundef 104) #6
  store ptr @start_input_ppm, ptr %15, align 8, !tbaa !35
  %16 = getelementptr inbounds nuw i8, ptr %15, i64 16
  store ptr @finish_input_ppm, ptr %16, align 8, !tbaa !41
  %17 = getelementptr inbounds nuw i8, ptr %15, i64 60
  store i32 0, ptr %17, align 4, !tbaa !42
  ret ptr %15
}